target datalayout = "e-m:e-p270:32:32-p271:32:32-p272:64:64-i64:64-i128:128-f80:128-n8:16:32:64-S128"
target triple = "x86_64-pc-linux-gnu"

%"class.std::__cxx11::basic_string" = type { %"struct.std::__cxx11::basic_string<char>::_Alloc_hider", i64, %union.anon }
%"struct.std::__cxx11::basic_string<char>::_Alloc_hider" = type { ptr }
%union.anon = type { i64, [8 x i8] }
%"class.Assimp::Ogre::MeshXml" = type { %"class.std::__cxx11::basic_string", ptr, ptr, %"class.std::vector.93" }
%"class.std::vector.93" = type { %"struct.std::_Vector_base.94" }
%"struct.std::_Vector_base.94" = type { %"struct.std::_Vector_base<Assimp::Ogre::SubMeshXml *, std::allocator<Assimp::Ogre::SubMeshXml *>>::_Vector_impl" }
%"struct.std::_Vector_base<Assimp::Ogre::SubMeshXml *, std::allocator<Assimp::Ogre::SubMeshXml *>>::_Vector_impl" = type { %"struct.std::_Vector_base<Assimp::Ogre::SubMeshXml *, std::allocator<Assimp::Ogre::SubMeshXml *>>::_Vector_impl_data" }
%"struct.std::_Vector_base<Assimp::Ogre::SubMeshXml *, std::allocator<Assimp::Ogre::SubMeshXml *>>::_Vector_impl_data" = type { ptr, ptr, ptr }

; Function Attrs: mustprogress nounwind uwtable
define linkonce_odr hidden noundef i64 @_ZNKSt6vectorIPN6Assimp4Ogre10SubMeshXmlESaIS3_EE4sizeEv(ptr noundef nonnull align 8 dereferenceable(24) %0) #0 comdat align 2 {
  %2 = alloca ptr, align 8
  store ptr %0, ptr %2, align 8
  %3 = load ptr, ptr %2, align 8
  %4 = getelementptr inbounds nuw %"struct.std::_Vector_base.94", ptr %3, i32 0, i32 0
  %5 = getelementptr inbounds nuw %"struct.std::_Vector_base<Assimp::Ogre::SubMeshXml *, std::allocator<Assimp::Ogre::SubMeshXml *>>::_Vector_impl_data", ptr %4, i32 0, i32 1
  %6 = load ptr, ptr %5, align 8
  %7 = getelementptr inbounds nuw %"struct.std::_Vector_base.94", ptr %3, i32 0, i32 0
  %8 = getelementptr inbounds nuw %"struct.std::_Vector_base<Assimp::Ogre::SubMeshXml *, std::allocator<Assimp::Ogre::SubMeshXml *>>::_Vector_impl_data", ptr %7, i32 0, i32 0
  %9 = load ptr, ptr %8, align 8
  %10 = ptrtoint ptr %6 to i64
  %11 = ptrtoint ptr %9 to i64
  %12 = sub i64 %10, %11
  %13 = sdiv exact i64 %12, 8
  ret i64 %13
}

; Function Attrs: mustprogress nounwind uwtable
define hidden noundef i64 @_ZNK6Assimp4Ogre7MeshXml12NumSubMeshesEv(ptr noundef nonnull align 8 dereferenceable(72) %0) #0 align 2 {
  %2 = alloca ptr, align 8
  store ptr %0, ptr %2, align 8
  %3 = load ptr, ptr %2, align 8
  %4 = getelementptr inbounds nuw %"class.Assimp::Ogre::MeshXml", ptr %3, i32 0, i32 3
  %5 = call noundef i64 @_ZNKSt6vectorIPN6Assimp4Ogre10SubMeshXmlESaIS3_EE4sizeEv(ptr noundef nonnull align 8 dereferenceable(24) %4) #20
  ret i64 %5
}